(Ven
p0
Ntp1
.(Ven
p0
Ntp1
.(Vtr
p0
(dp1
Vtype
p2
VPoint
p3
sVcoordinates
p4
(lp5
F37.367813
aF37.062694
astp6
.(Ven
p0
(dp1
Vtype
p2
VPoint
p3
sVcoordinates
p4
(lp5
F12.188033
aF45.471506
astp6
.(Ven
p0
Ntp1
.(Ven
p0
Ntp1
.(Ves
p0
Ntp1
.(Ven
p0
Ntp1
.(Ves
p0
(dp1
Vtype
p2
VPoint
p3
sVcoordinates
p4
(lp5
F107.038689
aF-6.268017
astp6
.(Ven
p0
(dp1
Vtype
p2
VPoint
p3
sVcoordinates
p4
(lp5
F-96.745366
aF40.636542
astp6
.(Vtr
p0
(dp1
Vtype
p2
VPoint
p3
sVcoordinates
p4
(lp5
F30.354747
aF40.762986
astp6
.(Vpt
p0
Ntp1
.(Vtr
p0
(dp1
Vtype
p2
VPoint
p3
sVcoordinates
p4
(lp5
F38.775701
aF37.159249
astp6
.(Ven
p0
Ntp1
.(Vsl
p0
Ntp1
.(Vpt
p0
Ntp1
.(Ves
p0
Ntp1
.(Ven
p0
Ntp1
.(Var
p0
Ntp1
.(Ven
p0
Ntp1
.(Ves
p0
Ntp1
.(Vpt
p0
(dp1
Vtype
p2
VPoint
p3
sVcoordinates
p4
(lp5
F-9.105349
aF38.741138
astp6
.(Vfr
p0
Ntp1
.(Ves
p0
Ntp1
.(Vpt
p0
(dp1
Vtype
p2
VPoint
p3
sVcoordinates
p4
(lp5
F-43.248946
aF-22.867987
astp6
.(Vtr
p0
(dp1
Vtype
p2
VPoint
p3
sVcoordinates
p4
(lp5
F29.001383
aF41.117839
astp6
.(Ves
p0
(dp1
Vtype
p2
VPoint
p3
sVcoordinates
p4
(lp5
F-90.516663
aF14.630666
astp6
.(Ven
p0
Ntp1
.(Ves
p0
Ntp1
.(Ven
p0
(dp1
Vtype
p2
VPoint
p3
sVcoordinates
p4
(lp5
F-96.723801
aF32.981429
astp6
.(Vin
p0
Ntp1
.(Ven
p0
Ntp1
.(Vtr
p0
Ntp1
.(Vund
p0
Ntp1
.(Ves
p0
Ntp1
.(Vfr
p0
Ntp1
.(Var
p0
Ntp1
.(Vpt
p0
Ntp1
.(Vpt
p0
Ntp1
.(Ven
p0
(dp1
Vtype
p2
VPoint
p3
sVcoordinates
p4
(lp5
F-77.017463
aF38.920797
astp6
.(Ves
p0
(dp1
Vtype
p2
VPoint
p3
sVcoordinates
p4
(lp5
F-3.701899
aF40.437621
astp6
.(Ven
p0
Ntp1
.(Vfr
p0
Ntp1
.(Ves
p0
Ntp1
.(Ves
p0
Ntp1
.(Ven
p0
(dp1
Vtype
p2
VPoint
p3
sVcoordinates
p4
(lp5
F51.548097
aF25.250163
astp6
.(Vund
p0
Ntp1
.(Var
p0
(dp1
Vtype
p2
VPoint
p3
sVcoordinates
p4
(lp5
F31.308332
aF29.882252
astp6
.(Vpt
p0
Ntp1
.(NNtp0
.(NNtp0
.(Vru
p0
Ntp1
.(Vfr
p0
Ntp1
.(Vpt
p0
Ntp1
.(NNtp0
.(Ves
p0
Ntp1
.(Vfr
p0
(dp1
Vtype
p2
VPoint
p3
sVcoordinates
p4
(lp5
F4.144371
aF50.450708
astp6
.(Ves
p0
Ntp1
.(NNtp0
.(Ven
p0
Ntp1
.(Vund
p0
(dp1
Vtype
p2
VPoint
p3
sVcoordinates
p4
(lp5
F-74.093258
aF41.07263
astp6
.(Vund
p0
Ntp1
.(Ven
p0
(dp1
Vtype
p2
VPoint
p3
sVcoordinates
p4
(lp5
F112.7435
aF-7.288413
astp6
.(Vpt
p0
(dp1
Vtype
p2
VPoint
p3
sVcoordinates
p4
(lp5
F-48.410631
aF-1.362352
astp6
.(Ven
p0
Ntp1
.(Ves
p0
Ntp1
.(Ven
p0
Ntp1
.(Ven
p0
(dp1
Vtype
p2
VPoint
p3
sVcoordinates
p4
(lp5
F-0.171472
aF51.520084
astp6
.(Ven
p0
Ntp1
.(Ven
p0
Ntp1
.(Vpt
p0
Ntp1
.(Ven
p0
(dp1
Vtype
p2
VPoint
p3
sVcoordinates
p4
(lp5
F-91.535306
aF41.661456
astp6
.(Vht
p0
Ntp1
.(Vpt
p0
(dp1
Vtype
p2
VPoint
p3
sVcoordinates
p4
(lp5
F-47.046842
aF-22.935819
astp6
.(Ven
p0
Ntp1
.(Var
p0
Ntp1
.(Ves
p0
Ntp1
.(Vpt
p0
Ntp1
.(Ves
p0
Ntp1
.(Vtl
p0
Ntp1
.(Vund
p0
Ntp1
.(Var
p0
Ntp1
.(Ven
p0
Ntp1
.(Ven
p0
Ntp1
.(Vfr
p0
(dp1
Vtype
p2
VPoint
p3
sVcoordinates
p4
(lp5
F2.32066
aF48.898277
astp6
.(Ven
p0
Ntp1
.(Ven
p0
Ntp1
.(Ven
p0
Ntp1
.(Ves
p0
(dp1
Vtype
p2
VPoint
p3
sVcoordinates
p4
(lp5
F-5.982862
aF37.399145
astp6
.(Vin
p0
Ntp1
.(Vund
p0
Ntp1
.(Ves
p0
Ntp1
.(Ven
p0
(dp1
Vtype
p2
VPoint
p3
sVcoordinates
p4
(lp5
F121.0096
aF14.59978
astp6
.(Vfr
p0
Ntp1
.(Vpt
p0
Ntp1
.(Vpt
p0
Ntp1
.(Vtr
p0
Ntp1
.(Ven
p0
Ntp1
.(Ves
p0
(dp1
Vtype
p2
VPoint
p3
sVcoordinates
p4
(lp5
F-3.665289
aF42.362054
astp6
.(Vund
p0
Ntp1
.(NNtp0
.(Ven
p0
Ntp1
.(NNtp0
.(Ves
p0
Ntp1
.(NNtp0
.(Vpt
p0
Ntp1
.(Ven
p0
Ntp1
.(Vit
p0
(dp1
Vtype
p2
VPoint
p3
sVcoordinates
p4
(lp5
F12.4823
aF41.8955
astp6
.(Ves
p0
Ntp1
.(Ven
p0
Ntp1
.(Ves
p0
(dp1
Vtype
p2
VPoint
p3
sVcoordinates
p4
(lp5
F-109.007409
aF25.771676
astp6
.(NNtp0
.(Vpt
p0
Ntp1
.(Ven
p0
(dp1
Vtype
p2
VPoint
p3
sVcoordinates
p4
(lp5
F-84.392718
aF38.973113
astp6
.(Ves
p0
Ntp1
.(Ves
p0
Ntp1
.(Ven
p0
Ntp1
.(Vund
p0
Ntp1
.(Vfr
p0
Ntp1
.(Ves
p0
Ntp1
.(Ves
p0
(dp1
Vtype
p2
VPoint
p3
sVcoordinates
p4
(lp5
F-99.226783
aF19.405981
astp6
.(Ven
p0
Ntp1
.(Ven
p0
Ntp1
.(Ven
p0
Ntp1
.(Vund
p0
Ntp1
.(Ven
p0
Ntp1
.(Ven
p0
Ntp1
.(Vund
p0
Ntp1
.(Vpt
p0
Ntp1
.(Vnl
p0
Ntp1
.(Vpl
p0
Ntp1
.(Vpt
p0
Ntp1
.(Ven
p0
Ntp1
.(Vpt
p0
(dp1
Vtype
p2
VPoint
p3
sVcoordinates
p4
(lp5
F-48.071537
aF-23.592939
astp6
.(Ven
p0
Ntp1
.(Vfi
p0
Ntp1
.(Vtr
p0
Ntp1
.(Ven
p0
Ntp1
.(Vet
p0
(dp1
Vtype
p2
VPoint
p3
sVcoordinates
p4
(lp5
F-86.611053
aF30.396072
astp6
.(Vpt
p0
Ntp1
.(Ven
p0
Ntp1
.(Ven
p0
Ntp1
.(Ves
p0
Ntp1
.(Ven
p0
(dp1
Vtype
p2
VPoint
p3
sVcoordinates
p4
(lp5
F101.573823
aF3.15735
astp6
.(Vfr
p0
(dp1
Vtype
p2
VPoint
p3
sVcoordinates
p4
(lp5
F10.225542
aF36.867067
astp6
.(Vpt
p0
Ntp1
.(Vnl
p0
Ntp1
.(Ves
p0
Ntp1
.(Ven
p0
Ntp1
.(Ves
p0
Ntp1
.(Ves
p0
Ntp1
.(Ves
p0
Ntp1
.(NNtp0
.(Vund
p0
Ntp1
.(NNtp0
.(Vtl
p0
(dp1
Vtype
p2
VPoint
p3
sVcoordinates
p4
(lp5
F120.599623
aF15.100509
astp6
.(Vund
p0
Ntp1
.(Vtr
p0
Ntp1
.(Ven
p0
Ntp1
.(NNtp0
.(Ven
p0
Ntp1
.(Ves
p0
Ntp1
.(Var
p0
Ntp1
.(Ves
p0
(dp1
Vtype
p2
VPoint
p3
sVcoordinates
p4
(lp5
F-57.572423
aF-25.291994
astp6
.(Ven
p0
Ntp1
.(Ven
p0
Ntp1
.(Ven
p0
Ntp1
.(NNtp0
.(Vpt
p0
Ntp1
.(Vpt
p0
Ntp1
.(Ven
p0
Ntp1
.(Ven
p0
Ntp1
.(Ves
p0
Ntp1
.(Ven
p0
(dp1
Vtype
p2
VPoint
p3
sVcoordinates
p4
(lp5
F-80.144677
aF25.790361
astp6
.(Ven
p0
Ntp1
.(Vru
p0
Ntp1
.(Ven
p0
Ntp1
.(Vfr
p0
Ntp1
.(Ves
p0
Ntp1
.(Vpt
p0
Ntp1
.(Ves
p0
Ntp1
.(Ven
p0
Ntp1
.(Ves
p0
(dp1
Vtype
p2
VPoint
p3
sVcoordinates
p4
(lp5
F-58.464229
aF-34.632453
astp6
.(Ven
p0
(dp1
Vtype
p2
VPoint
p3
sVcoordinates
p4
(lp5
F-3.041307
aF53.390134
astp6
.(Ven
p0
Ntp1
.(Ves
p0
Ntp1
.(Ves
p0
Ntp1
.(Ven
p0
Ntp1
.(Vit
p0
Ntp1
.(Ven
p0
Ntp1
.(Vund
p0
(dp1
Vtype
p2
VPoint
p3
sVcoordinates
p4
(lp5
F-9.105349
aF38.741138
astp6
.(Ves
p0
Ntp1
.(Vpt
p0
Ntp1
.(Ven
p0
Ntp1
.(Vpt
p0
Ntp1
.(Ven
p0
Ntp1
.(Ven
p0
Ntp1
.(Ven
p0
(dp1
Vtype
p2
VPoint
p3
sVcoordinates
p4
(lp5
F-111.737155
aF32.937405
astp6
.(Vfr
p0
Ntp1
.(Ves
p0
Ntp1
.(Ves
p0
(dp1
Vtype
p2
VPoint
p3
sVcoordinates
p4
(lp5
F-60.027955
aF-3.129009
astp6
.(Ven
p0
(dp1
Vtype
p2
VPoint
p3
sVcoordinates
p4
(lp5
F-84.373219
aF33.457502
astp6
.(Vund
p0
Ntp1
.(Vfr
p0
Ntp1
.(Ven
p0
Ntp1
.(Ves
p0
(dp1
Vtype
p2
VPoint
p3
sVcoordinates
p4
(lp5
F8.190875
aF45.665758
astp6
.(Vund
p0
Ntp1
.(Ven
p0
(dp1
Vtype
p2
VPoint
p3
sVcoordinates
p4
(lp5
F-78.946095
aF34.921561
astp6
.(Ven
p0
Ntp1
.(Var
p0
Ntp1
.(Ves
p0
Ntp1
.(Ven
p0
(dp1
Vtype
p2
VPoint
p3
sVcoordinates
p4
(lp5
F-97.159021
aF33.21646
astp6
.(Vsl
p0
Ntp1
.(Ves
p0
Ntp1
.(Ven
p0
Ntp1
.(Vpt
p0
(dp1
Vtype
p2
VPoint
p3
sVcoordinates
p4
(lp5
F-54.104412
aF-31.318413
astp6
.(Vund
p0
Ntp1
.(Vru
p0
Ntp1
.(Ven
p0
Ntp1
.(Vfr
p0
Ntp1
.(Vru
p0
Ntp1
.(Vru
p0
(dp1
Vtype
p2
VPoint
p3
sVcoordinates
p4
(lp5
F37.696705
aF48.51386
astp6
.(Ves
p0
Ntp1
.(Ves
p0
Ntp1
.(Vde
p0
Ntp1
.(Vpt
p0
Ntp1
.(Ven
p0
Ntp1
.(Ven
p0
(dp1
Vtype
p2
VPoint
p3
sVcoordinates
p4
(lp5
F-121.342192
aF38.665169
astp6
.(Vde
p0
Ntp1
.(Ves
p0
Ntp1
.(Vund
p0
Ntp1
.(Vtr
p0
(dp1
Vtype
p2
VPoint
p3
sVcoordinates
p4
(lp5
F28.826711
aF41.030947
astp6
.(Ven
p0
Ntp1
.(Ves
p0
Ntp1
.(Vpt
p0
Ntp1
.(Vtr
p0
Ntp1
.(Vpt
p0
Ntp1
.(Vru
p0
Ntp1
.(Ven
p0
(dp1
Vtype
p2
VPoint
p3
sVcoordinates
p4
(lp5
F-4.237797
aF55.75911
astp6
.(Vru
p0
Ntp1
.(Vund
p0
(dp1
Vtype
p2
VPoint
p3
sVcoordinates
p4
(lp5
F-93.146095
aF45.006199
astp6
.(Vund
p0
Ntp1
.(Ven
p0
Ntp1
.(Vth
p0
(dp1
Vtype
p2
VPoint
p3
sVcoordinates
p4
(lp5
F-0.421316
aF54.288951
astp6
.(Ven
p0
Ntp1
.(Vde
p0
Ntp1
.(Ven
p0
Ntp1
.(Vfr
p0
Ntp1
.(Ves
p0
Ntp1
.(Ven
p0
(dp1
Vtype
p2
VPoint
p3
sVcoordinates
p4
(lp5
F-105.001806
aF39.750039
astp6
.(Ven
p0
Ntp1
.(Ven
p0
Ntp1
.(Ven
p0
Ntp1
.(Ven
p0
Ntp1
.(Ven
p0
Ntp1
.(Ves
p0
Ntp1
.(Ven
p0
Ntp1
.(Ven
p0
(dp1
Vtype
p2
VPoint
p3
sVcoordinates
p4
(lp5
F1.746854
aF50.269109
astp6
.(Vpt
p0
Ntp1
.(Ves
p0
(dp1
Vtype
p2
VPoint
p3
sVcoordinates
p4
(lp5
F-49.405988
aF-28.702187
astp6
.(Vtr
p0
Ntp1
.(Ven
p0
(dp1
Vtype
p2
VPoint
p3
sVcoordinates
p4
(lp5
F-75.140554
aF40.055192
astp6
.(Ves
p0
Ntp1
.(Ven
p0
Ntp1
.(Vtr
p0
(dp1
Vtype
p2
VPoint
p3
sVcoordinates
p4
(lp5
F28.940034
aF40.178557
astp6
.(Vfr
p0
(dp1
Vtype
p2
VPoint
p3
sVcoordinates
p4
(lp5
F6.044751
aF49.248604
astp6
.(Ven
p0
Ntp1
.(Vpt
p0
(dp1
Vtype
p2
VPoint
p3
sVcoordinates
p4
(lp5
F14.972123
aF40.619512
astp6
.(Ven
p0
(dp1
Vtype
p2
VPoint
p3
sVcoordinates
p4
(lp5
F-1.466408
aF53.380888
astp6
.(Ves
p0
Ntp1
.(Ven
p0
Ntp1
.(Vund
p0
Ntp1
.(Vund
p0
Ntp1
.(Ven
p0
Ntp1
.(Ven
p0
(dp1
Vtype
p2
VPoint
p3
sVcoordinates
p4
(lp5
F4.50144
aF8.48171
astp6
.(Ven
p0
Ntp1
.(Vpt
p0
(dp1
Vtype
p2
VPoint
p3
sVcoordinates
p4
(lp5
F-51.198885
aF-30.049649
astp6
.(Ven
p0
Ntp1
.(Ves
p0
Ntp1
.(NNtp0
.(Ven
p0
Ntp1
.(Vtr
p0
(dp1
Vtype
p2
VPoint
p3
sVcoordinates
p4
(lp5
F29.024816
aF37.781116
astp6
.(Ves
p0
Ntp1
.(Ven
p0
Ntp1
.(NNtp0
.(Vpt
p0
(dp1
Vtype
p2
VPoint
p3
sVcoordinates
p4
(lp5
F-8.82917
aF39.75459
astp6
.(NNtp0
.(Ven
p0
Ntp1
.(Vpt
p0
Ntp1
.(Vpt
p0
Ntp1
.(NNtp0
.(Vpt
p0
Ntp1
.(Vpt
p0
Ntp1
.(Ves
p0
Ntp1
.(Ven
p0
Ntp1
.(Ven
p0
(dp1
Vtype
p2
VPoint
p3
sVcoordinates
p4
(lp5
F36.301746
aF41.327842
astp6
.(Ven
p0
Ntp1
.(Vin
p0
(dp1
Vtype
p2
VPoint
p3
sVcoordinates
p4
(lp5
F101.573589
aF3.155589
astp6
.(Vtr
p0
Ntp1
.(Vtr
p0
(dp1
Vtype
p2
VPoint
p3
sVcoordinates
p4
(lp5
F27.212749
aF38.459797
astp6
.(Ven
p0
(dp1
Vtype
p2
VPoint
p3
sVcoordinates
p4
(lp5
F-80.4507
aF35.652767
astp6
.(Vtr
p0
Ntp1
.(Ves
p0
Ntp1
.(Ves
p0
Ntp1
.(Ves
p0
Ntp1
.(Vfr
p0
Ntp1
.(Ven
p0
Ntp1
.(Vde
p0
Ntp1
.(Vtr
p0
Ntp1
.(Ven
p0
Ntp1
.(Ven
p0
(dp1
Vtype
p2
VPoint
p3
sVcoordinates
p4
(lp5
F-83.066417
aF42.355214
astp6
.(Ven
p0
Ntp1
.(Vit
p0
Ntp1
.(Ven
p0
Ntp1
.(Vfr
p0
Ntp1
.(Vpt
p0
Ntp1
.(Vpt
p0
(dp1
Vtype
p2
VPoint
p3
sVcoordinates
p4
(lp5
F-45.944624
aF-22.228875
astp6
.(Ven
p0
Ntp1
.(Ven
p0
Ntp1
.(Ves
p0
Ntp1
.(Ves
p0
Ntp1
.(Ves
p0
Ntp1
.(Ven
p0
(dp1
Vtype
p2
VPoint
p3
sVcoordinates
p4
(lp5
F-0.02688
aF5.620204
astp6
.(Ves
p0
Ntp1
.(Vht
p0
Ntp1
.(Ven
p0
Ntp1
.(Ven
p0
Ntp1
.(Ven
p0
Ntp1
.(Ven
p0
Ntp1
.(Ven
p0
Ntp1
.(Vpt
p0
Ntp1
.(NNtp0
.(Vru
p0
(dp1
Vtype
p2
VPoint
p3
sVcoordinates
p4
(lp5
F37.983181
aF55.794188
astp6
.(NNtp0
.(Vpt
p0
Ntp1
.(Ven
p0
Ntp1
.(Vund
p0
(dp1
Vtype
p2
VPoint
p3
sVcoordinates
p4
(lp5
F-43.301572
aF-22.881617
astp6
.(Ven
p0
(dp1
Vtype
p2
VPoint
p3
sVcoordinates
p4
(lp5
F-75.297372
aF39.956165
astp6
.(NNtp0
.(Vtr
p0
Ntp1
.(NNtp0
.(Vund
p0
Ntp1
.(Vund
p0
Ntp1
.(Ves
p0
Ntp1
.(Ven
p0
Ntp1
.(Ven
p0
(dp1
Vtype
p2
VPoint
p3
sVcoordinates
p4
(lp5
F-79.51808
aF43.62207
astp6
.(Vtr
p0
(dp1
Vtype
p2
VPoint
p3
sVcoordinates
p4
(lp5
F28.977122
aF41.09604
astp6
.(Vit
p0
Ntp1
.(Vund
p0
Ntp1
.(Ves
p0
Ntp1
.(Vund
p0
Ntp1
.(Ven
p0
Ntp1
.(Vund
p0
Ntp1
.(Vpt
p0
Ntp1
.(Ven
p0
Ntp1
.(Ven
p0
Ntp1
.(Vpt
p0
Ntp1
.(Vpt
p0
Ntp1
.(Ves
p0
Ntp1
.(Ven
p0
Ntp1
.(Vpt
p0
Ntp1
.(Ven
p0
Ntp1
.(Ves
p0
Ntp1
.(Ves
p0
Ntp1
.(Vpt
p0
Ntp1
.(Ves
p0
(dp1
Vtype
p2
VPoint
p3
sVcoordinates
p4
(lp5
F-7.375001
aF53.988101
astp6
.(Ven
p0
Ntp1
.(Vth
p0
Ntp1
.(Ven
p0
Ntp1
.(Ven
p0
(dp1
Vtype
p2
VPoint
p3
sVcoordinates
p4
(lp5
F1.016433
aF51.354671
astp6
.(Ves
p0
Ntp1
.(Vpt
p0
Ntp1
.(Ves
p0
(dp1
Vtype
p2
VPoint
p3
sVcoordinates
p4
(lp5
F-60.686938
aF-31.615725
astp6
.(Vht
p0
Ntp1
.(Ven
p0
Ntp1
.(Vpt
p0
Ntp1
.(Ven
p0
Ntp1
.(Ven
p0
Ntp1
.(Vit
p0
Ntp1
.(Vpt
p0
Ntp1
.(Var
p0
(dp1
Vtype
p2
VPoint
p3
sVcoordinates
p4
(lp5
F44.497144
aF33.328112
astp6
.(Vtl
p0
Ntp1
.(Ven
p0
Ntp1
.(NNtp0
.(Ven
p0
Ntp1
.(NNtp0
.(Vund
p0
Ntp1
.(Vpt
p0
Ntp1
.(NNtp0
.(Vund
p0
(dp1
Vtype
p2
VPoint
p3
sVcoordinates
p4
(lp5
F-70.842183
aF-33.356228
astp6
.(Ven
p0
Ntp1
.(Vund
p0
Ntp1
.(Vet
p0
Ntp1
.(Ves
p0
Ntp1
.(Vpt
p0
Ntp1
.(Ven
p0
Ntp1
.(Ven
p0
Ntp1
.(Vfr
p0
Ntp1
.(Ven
p0
Ntp1
.(Ven
p0
Ntp1
.(Vin
p0
Ntp1
.(Vru
p0
Ntp1
.(Ven
p0
Ntp1
.(Vtr
p0
Ntp1
.(Ven
p0
Ntp1
.(Vpt
p0
Ntp1
.(Vpt
p0
(dp1
Vtype
p2
VPoint
p3
sVcoordinates
p4
(lp5
F-45.858871
aF-23.18632
astp6
.(Vtr
p0
(dp1
Vtype
p2
VPoint
p3
sVcoordinates
p4
(lp5
F33.456878
aF39.871703
astp6
.(NNtp0
.(Vru
p0
Ntp1
.(Vund
p0
Ntp1
.(Vpt
p0
Ntp1
.(Ven
p0
Ntp1
.(Ves
p0
(dp1
Vtype
p2
VPoint
p3
sVcoordinates
p4
(lp5
F9.772628
aF45.667097
astp6
.(Vit
p0
Ntp1
.(Vda
p0
Ntp1
.(Vpt
p0
Ntp1
.(Ven
p0
Ntp1
.(Ves
p0
Ntp1
.(Vund
p0
Ntp1
.(Vnl
p0
Ntp1
.(Ves
p0
Ntp1
.(Ven
p0
(dp1
Vtype
p2
VPoint
p3
sVcoordinates
p4
(lp5
F-83.263762
aF42.332102
astp6
.(Ven
p0
Ntp1
.(Vht
p0
(dp1
Vtype
p2
VPoint
p3
sVcoordinates
p4
(lp5
F77.083525
aF28.638493
astp6
.(Vtr
p0
Ntp1
.(Vpt
p0
(dp1
Vtype
p2
VPoint
p3
sVcoordinates
p4
(lp5
F-0.164318
aF50.832762
astp6
.(Vja
p0
(dp1
Vtype
p2
VPoint
p3
sVcoordinates
p4
(lp5
F130.428676
aF33.612486
astp6
.(Vth
p0
Ntp1
.(Vund
p0
Ntp1
.(Vtr
p0
(dp1
Vtype
p2
VPoint
p3
sVcoordinates
p4
(lp5
F29.068712
aF40.181655
astp6
.(Ven
p0
Ntp1
.(Vpt
p0
Ntp1
.(Vfr
p0
Ntp1
.(Ven
p0
Ntp1
.(NNtp0
.(Ven
p0
Ntp1
.(NNtp0
.(Ven
p0
Ntp1
.(NNtp0
.(Ven
p0
Ntp1
.(Ven
p0
Ntp1
.(Vfr
p0
Ntp1
.(Ves
p0
(dp1
Vtype
p2
VPoint
p3
sVcoordinates
p4
(lp5
F-58.435099
aF-34.753319
astp6
.(Ven
p0
Ntp1
.(NNtp0
.(Vtr
p0
Ntp1
.(Vru
p0
Ntp1
.(Ven
p0
Ntp1
.(Ven
p0
Ntp1
.(Vpt
p0
Ntp1
.(Ves
p0
Ntp1
.(Vja
p0
(dp1
Vtype
p2
VPoint
p3
sVcoordinates
p4
(lp5
F-75.835932
aF44.469513
astp6
.(Ves
p0
Ntp1
.(Vur
p0
Ntp1
.(Ves
p0
(dp1
Vtype
p2
VPoint
p3
sVcoordinates
p4
(lp5
F-61.721752
aF-36.301457
astp6
.(Vund
p0
Ntp1
.(Ves
p0
Ntp1
.(Ves
p0
Ntp1
.(Vpt
p0
Ntp1
.(Ven
p0
Ntp1
.(Ves
p0
Ntp1
.(Ven
p0
Ntp1
.(Ves
p0
Ntp1
.(Ven
p0
(dp1
Vtype
p2
VPoint
p3
sVcoordinates
p4
(lp5
F-112.015791
aF33.29512
astp6
.(Vpt
p0
Ntp1
.(Vtr
p0
Ntp1
.(Vund
p0
Ntp1
.(Vpt
p0
Ntp1
.(Ves
p0
Ntp1
.(Ven
p0
Ntp1
.(Vpt
p0
Ntp1
.(Ves
p0
Ntp1
.(Vfi
p0
Ntp1
.(Vpt
p0
Ntp1
.(Var
p0
Ntp1
.(Vit
p0
Ntp1
.(Vtr
p0
Ntp1
.(Vpt
p0
Ntp1
.(Vtr
p0
Ntp1
.(Vtr
p0
Ntp1
.(Vund
p0
Ntp1
.(Vpt
p0
Ntp1
.(Ves
p0
Ntp1
.(Ven
p0
Ntp1
.(Ves
p0
Ntp1
.(Vfr
p0
Ntp1
.(NNtp0
.(Ven
p0
Ntp1
.(NNtp0
.(Ven
p0
(dp1
Vtype
p2
VPoint
p3
sVcoordinates
p4
(lp5
F-1.553316
aF53.44384
astp6
.(NNtp0
.(Ves
p0
Ntp1
.(Ven
p0
Ntp1
.(Vru
p0
Ntp1
.(Vpt
p0
(dp1
Vtype
p2
VPoint
p3
sVcoordinates
p4
(lp5
F-7.906311
aF40.661765
astp6
.(Var
p0
Ntp1
.(NNtp0
.(Ven
p0
(dp1
Vtype
p2
VPoint
p3
sVcoordinates
p4
(lp5
F-2.101263
aF52.523078
astp6
.(Ven
p0
Ntp1
.(Ven
p0
Ntp1
.(Ven
p0
Ntp1
.(Ves
p0
Ntp1
.(Ven
p0
Ntp1
.(Ves
p0
Ntp1
.(Ven
p0
(dp1
Vtype
p2
VPoint
p3
sVcoordinates
p4
(lp5
F-101.778271
aF22.069042
astp6
.(Ven
p0
Ntp1
.(Var
p0
Ntp1
.(Ven
p0
Ntp1
.(Ven
p0
Ntp1
.(Ves
p0
Ntp1
.(Ven
p0
Ntp1
.(Ven
p0
Ntp1
.(Vpt
p0
(dp1
Vtype
p2
VPoint
p3
sVcoordinates
p4
(lp5
F-47.872571
aF-15.799088
astp6
.